; Function Attrs: mustprogress uwtable
define hidden void @_ZN10duckdb_re26Regexp10ParseState13DoAlternationEv(ptr noundef nonnull align 8 captures(none) dereferenceable(48) %0) local_unnamed_addr #9 align 2 {
  %2 = tail call noundef zeroext i1 @_ZN10duckdb_re26Regexp10ParseState13DoVerticalBarEv(ptr noundef nonnull align 8 dereferenceable(48) %0)
  %3 = getelementptr inbounds nuw i8, ptr %0, i64 32
  %4 = load ptr, ptr %3, align 8, !tbaa !20
  %5 = getelementptr inbounds nuw i8, ptr %4, i64 16
  %6 = load ptr, ptr %5, align 8, !tbaa !23
  store ptr %6, ptr %3, align 8, !tbaa !20
  tail call void @_ZN10duckdb_re26Regexp6DecrefEv(ptr noundef nonnull align 8 dereferenceable(40) %4)
  tail call void @_ZN10duckdb_re26Regexp10ParseState10DoCollapseENS_8RegexpOpE(ptr noundef nonnull align 8 dereferenceable(48) %0, i32 noundef 6)
  ret void
}